; Function Attrs: nounwind uwtable
define internal void @recff_buffer_method___len(ptr noundef %0, ptr noundef readonly captures(none) %1) #0 {
  %.val = load ptr, ptr %1, align 8, !tbaa !36
  %3 = getelementptr inbounds nuw i8, ptr %0, i64 160
  %4 = load ptr, ptr %3, align 8, !tbaa !37
  %5 = load i32, ptr %4, align 4, !tbaa !39
  %6 = load i64, ptr %.val, align 8, !tbaa !4
  %.mask.i = and i64 %6, -140737488355328
  %7 = icmp eq i64 %.mask.i, -1829587348619264
  br i1 %7, label %8, label %14

8:                                                ; preds = %2
  %9 = and i64 %6, 140737488355327
  %10 = inttoptr i64 %9 to ptr
  %11 = getelementptr inbounds nuw i8, ptr %10, i64 10
  %12 = load i8, ptr %11, align 2, !tbaa !4
  %13 = icmp eq i8 %12, 3
  br i1 %13, label %recff_sbufx_check.exit, label %14

14:                                               ; preds = %8, %2
  tail call void @lj_trace_err(ptr noundef nonnull %0, i32 noundef 11) #10
  unreachable

recff_sbufx_check.exit:                           ; preds = %8
  %15 = trunc i32 %5 to i16
  %16 = getelementptr inbounds nuw i8, ptr %0, i64 184
  %17 = getelementptr inbounds nuw i8, ptr %0, i64 188
  store i16 17680, ptr %17, align 4, !tbaa !4
  store i16 %15, ptr %16, align 8, !tbaa !4
  %18 = getelementptr inbounds nuw i8, ptr %0, i64 186
  store i16 12, ptr %18, align 2, !tbaa !4
  %19 = tail call i32 @lj_opt_fold(ptr noundef nonnull %0) #9
  %20 = trunc i32 %19 to i16
  %21 = tail call i32 @lj_ir_kint(ptr noundef nonnull %0, i32 noundef 3) #9
  %22 = trunc i32 %21 to i16
  store i16 2195, ptr %17, align 4, !tbaa !4
  store i16 %20, ptr %16, align 8, !tbaa !4
  store i16 %22, ptr %18, align 2, !tbaa !4
  %23 = tail call i32 @lj_opt_fold(ptr noundef nonnull %0) #9
  %24 = getelementptr inbounds nuw i8, ptr %0, i64 181
  store i8 1, ptr %24, align 1, !tbaa !54
  store i16 17673, ptr %17, align 4, !tbaa !4
  store i16 %15, ptr %16, align 8, !tbaa !4
  store i16 19, ptr %18, align 2, !tbaa !4
  %25 = tail call i32 @lj_opt_fold(ptr noundef nonnull %0) #9
  store i16 17673, ptr %17, align 4, !tbaa !4
  store i16 %15, ptr %16, align 8, !tbaa !4
  store i16 14, ptr %18, align 2, !tbaa !4
  %26 = tail call i32 @lj_opt_fold(ptr noundef nonnull %0) #9
  %27 = trunc i32 %26 to i16
  %28 = trunc i32 %25 to i16
  store i16 10773, ptr %17, align 4, !tbaa !4
  store i16 %27, ptr %16, align 8, !tbaa !4
  store i16 %28, ptr %18, align 2, !tbaa !4
  %29 = tail call i32 @lj_opt_fold(ptr noundef nonnull %0) #9
  %30 = trunc i32 %29 to i16
  store i16 23315, ptr %17, align 4, !tbaa !4
  store i16 %30, ptr %16, align 8, !tbaa !4
  store i16 4725, ptr %18, align 2, !tbaa !4
  %31 = tail call i32 @lj_opt_fold(ptr noundef nonnull %0) #9
  %32 = load ptr, ptr %3, align 8, !tbaa !37
  store i32 %31, ptr %32, align 4, !tbaa !39
  ret void
}